target datalayout = "e-m:e-p270:32:32-p271:32:32-p272:64:64-i64:64-i128:128-f80:128-n8:16:32:64-S128"
target triple = "x86_64-pc-linux-gnu"

%struct.Color = type { i8, i8, i8, i8 }
%struct.Vector2 = type { float, float }

; Function Attrs: nounwind uwtable
define void @DrawSplineSegmentBezierQuadratic(<2 x float> %0, <2 x float> %1, <2 x float> %2, float noundef %3, i32 %4) #0 {
  %6 = alloca %struct.Vector2, align 4
  %7 = alloca %struct.Vector2, align 4
  %8 = alloca %struct.Vector2, align 4
  %9 = alloca %struct.Color, align 1
  %10 = alloca float, align 4
  %11 = alloca float, align 4
  %12 = alloca %struct.Vector2, align 4
  %13 = alloca %struct.Vector2, align 4
  %14 = alloca float, align 4
  %15 = alloca [50 x %struct.Vector2], align 16
  %16 = alloca i32, align 4
  %17 = alloca float, align 4
  %18 = alloca float, align 4
  %19 = alloca float, align 4
  %20 = alloca float, align 4
  %21 = alloca float, align 4
  %22 = alloca float, align 4
  store <2 x float> %0, ptr %6, align 4
  store <2 x float> %1, ptr %7, align 4
  store <2 x float> %2, ptr %8, align 4
  store i32 %4, ptr %9, align 1
  store float %3, ptr %10, align 4
  call void @llvm.lifetime.start.p0(i64 4, ptr %11) #8
  store float 0x3FA5555560000000, ptr %11, align 4
  call void @llvm.lifetime.start.p0(i64 8, ptr %12) #8
  call void @llvm.memcpy.p0.p0.i64(ptr align 4 %12, ptr align 4 %6, i64 8, i1 false)
  call void @llvm.lifetime.start.p0(i64 8, ptr %13) #8
  call void @llvm.memset.p0.i64(ptr align 4 %13, i8 0, i64 8, i1 false)
  call void @llvm.lifetime.start.p0(i64 4, ptr %14) #8
  store float 0.000000e+00, ptr %14, align 4
  call void @llvm.lifetime.start.p0(i64 400, ptr %15) #8
  call void @llvm.memset.p0.i64(ptr align 16 %15, i8 0, i64 400, i1 false)
  call void @llvm.lifetime.start.p0(i64 4, ptr %16) #8
  store i32 1, ptr %16, align 4
  br label %23

23:                                               ; preds = %165, %5
  %24 = load i32, ptr %16, align 4
  %25 = icmp sle i32 %24, 24
  br i1 %25, label %27, label %26

26:                                               ; preds = %23
  call void @llvm.lifetime.end.p0(i64 4, ptr %16) #8
  br label %168

27:                                               ; preds = %23
  %28 = load i32, ptr %16, align 4
  %29 = sitofp i32 %28 to float
  %30 = fmul float 0x3FA5555560000000, %29
  store float %30, ptr %14, align 4
  call void @llvm.lifetime.start.p0(i64 4, ptr %17) #8
  %31 = load float, ptr %14, align 4
  %32 = fsub float 1.000000e+00, %31
  %33 = call float @powf(float noundef %32, float noundef 2.000000e+00) #8
  store float %33, ptr %17, align 4
  call void @llvm.lifetime.start.p0(i64 4, ptr %18) #8
  %34 = load float, ptr %14, align 4
  %35 = fsub float 1.000000e+00, %34
  %36 = fmul float 2.000000e+00, %35
  %37 = load float, ptr %14, align 4
  %38 = fmul float %36, %37
  store float %38, ptr %18, align 4
  call void @llvm.lifetime.start.p0(i64 4, ptr %19) #8
  %39 = load float, ptr %14, align 4
  %40 = call float @powf(float noundef %39, float noundef 2.000000e+00) #8
  store float %40, ptr %19, align 4
  %41 = load float, ptr %17, align 4
  %42 = getelementptr inbounds nuw %struct.Vector2, ptr %6, i32 0, i32 1
  %43 = load float, ptr %42, align 4
  %44 = load float, ptr %18, align 4
  %45 = getelementptr inbounds nuw %struct.Vector2, ptr %7, i32 0, i32 1
  %46 = load float, ptr %45, align 4
  %47 = fmul float %44, %46
  %48 = call float @llvm.fmuladd.f32(float %41, float %43, float %47)
  %49 = load float, ptr %19, align 4
  %50 = getelementptr inbounds nuw %struct.Vector2, ptr %8, i32 0, i32 1
  %51 = load float, ptr %50, align 4
  %52 = call float @llvm.fmuladd.f32(float %49, float %51, float %48)
  %53 = getelementptr inbounds nuw %struct.Vector2, ptr %13, i32 0, i32 1
  store float %52, ptr %53, align 4
  %54 = load float, ptr %17, align 4
  %55 = getelementptr inbounds nuw %struct.Vector2, ptr %6, i32 0, i32 0
  %56 = load float, ptr %55, align 4
  %57 = load float, ptr %18, align 4
  %58 = getelementptr inbounds nuw %struct.Vector2, ptr %7, i32 0, i32 0
  %59 = load float, ptr %58, align 4
  %60 = fmul float %57, %59
  %61 = call float @llvm.fmuladd.f32(float %54, float %56, float %60)
  %62 = load float, ptr %19, align 4
  %63 = getelementptr inbounds nuw %struct.Vector2, ptr %8, i32 0, i32 0
  %64 = load float, ptr %63, align 4
  %65 = call float @llvm.fmuladd.f32(float %62, float %64, float %61)
  %66 = getelementptr inbounds nuw %struct.Vector2, ptr %13, i32 0, i32 0
  store float %65, ptr %66, align 4
  call void @llvm.lifetime.start.p0(i64 4, ptr %20) #8
  %67 = getelementptr inbounds nuw %struct.Vector2, ptr %13, i32 0, i32 1
  %68 = load float, ptr %67, align 4
  %69 = getelementptr inbounds nuw %struct.Vector2, ptr %12, i32 0, i32 1
  %70 = load float, ptr %69, align 4
  %71 = fsub float %68, %70
  store float %71, ptr %20, align 4
  call void @llvm.lifetime.start.p0(i64 4, ptr %21) #8
  %72 = getelementptr inbounds nuw %struct.Vector2, ptr %13, i32 0, i32 0
  %73 = load float, ptr %72, align 4
  %74 = getelementptr inbounds nuw %struct.Vector2, ptr %12, i32 0, i32 0
  %75 = load float, ptr %74, align 4
  %76 = fsub float %73, %75
  store float %76, ptr %21, align 4
  call void @llvm.lifetime.start.p0(i64 4, ptr %22) #8
  %77 = load float, ptr %10, align 4
  %78 = fmul float 5.000000e-01, %77
  %79 = load float, ptr %21, align 4
  %80 = load float, ptr %21, align 4
  %81 = load float, ptr %20, align 4
  %82 = load float, ptr %20, align 4
  %83 = fmul float %81, %82
  %84 = call float @llvm.fmuladd.f32(float %79, float %80, float %83)
  %85 = call float @sqrtf(float noundef %84) #8
  %86 = fdiv float %78, %85
  store float %86, ptr %22, align 4
  %87 = load i32, ptr %16, align 4
  %88 = icmp eq i32 %87, 1
  br i1 %88, label %89, label %120

89:                                               ; preds = %27
  %90 = getelementptr inbounds nuw %struct.Vector2, ptr %12, i32 0, i32 0
  %91 = load float, ptr %90, align 4
  %92 = load float, ptr %20, align 4
  %93 = load float, ptr %22, align 4
  %94 = call float @llvm.fmuladd.f32(float %92, float %93, float %91)
  %95 = getelementptr inbounds [50 x %struct.Vector2], ptr %15, i64 0, i64 0
  %96 = getelementptr inbounds nuw %struct.Vector2, ptr %95, i32 0, i32 0
  store float %94, ptr %96, align 16
  %97 = getelementptr inbounds nuw %struct.Vector2, ptr %12, i32 0, i32 1
  %98 = load float, ptr %97, align 4
  %99 = load float, ptr %21, align 4
  %100 = load float, ptr %22, align 4
  %101 = fneg float %99
  %102 = call float @llvm.fmuladd.f32(float %101, float %100, float %98)
  %103 = getelementptr inbounds [50 x %struct.Vector2], ptr %15, i64 0, i64 0
  %104 = getelementptr inbounds nuw %struct.Vector2, ptr %103, i32 0, i32 1
  store float %102, ptr %104, align 4
  %105 = getelementptr inbounds nuw %struct.Vector2, ptr %12, i32 0, i32 0
  %106 = load float, ptr %105, align 4
  %107 = load float, ptr %20, align 4
  %108 = load float, ptr %22, align 4
  %109 = fneg float %107
  %110 = call float @llvm.fmuladd.f32(float %109, float %108, float %106)
  %111 = getelementptr inbounds [50 x %struct.Vector2], ptr %15, i64 0, i64 1
  %112 = getelementptr inbounds nuw %struct.Vector2, ptr %111, i32 0, i32 0
  store float %110, ptr %112, align 8
  %113 = getelementptr inbounds nuw %struct.Vector2, ptr %12, i32 0, i32 1
  %114 = load float, ptr %113, align 4
  %115 = load float, ptr %21, align 4
  %116 = load float, ptr %22, align 4
  %117 = call float @llvm.fmuladd.f32(float %115, float %116, float %114)
  %118 = getelementptr inbounds [50 x %struct.Vector2], ptr %15, i64 0, i64 1
  %119 = getelementptr inbounds nuw %struct.Vector2, ptr %118, i32 0, i32 1
  store float %117, ptr %119, align 4
  br label %120

120:                                              ; preds = %89, %27
  %121 = getelementptr inbounds nuw %struct.Vector2, ptr %13, i32 0, i32 0
  %122 = load float, ptr %121, align 4
  %123 = load float, ptr %20, align 4
  %124 = load float, ptr %22, align 4
  %125 = fneg float %123
  %126 = call float @llvm.fmuladd.f32(float %125, float %124, float %122)
  %127 = load i32, ptr %16, align 4
  %128 = mul nsw i32 2, %127
  %129 = add nsw i32 %128, 1
  %130 = sext i32 %129 to i64
  %131 = getelementptr inbounds [50 x %struct.Vector2], ptr %15, i64 0, i64 %130
  %132 = getelementptr inbounds nuw %struct.Vector2, ptr %131, i32 0, i32 0
  store float %126, ptr %132, align 8
  %133 = getelementptr inbounds nuw %struct.Vector2, ptr %13, i32 0, i32 1
  %134 = load float, ptr %133, align 4
  %135 = load float, ptr %21, align 4
  %136 = load float, ptr %22, align 4
  %137 = call float @llvm.fmuladd.f32(float %135, float %136, float %134)
  %138 = load i32, ptr %16, align 4
  %139 = mul nsw i32 2, %138
  %140 = add nsw i32 %139, 1
  %141 = sext i32 %140 to i64
  %142 = getelementptr inbounds [50 x %struct.Vector2], ptr %15, i64 0, i64 %141
  %143 = getelementptr inbounds nuw %struct.Vector2, ptr %142, i32 0, i32 1
  store float %137, ptr %143, align 4
  %144 = getelementptr inbounds nuw %struct.Vector2, ptr %13, i32 0, i32 0
  %145 = load float, ptr %144, align 4
  %146 = load float, ptr %20, align 4
  %147 = load float, ptr %22, align 4
  %148 = call float @llvm.fmuladd.f32(float %146, float %147, float %145)
  %149 = load i32, ptr %16, align 4
  %150 = mul nsw i32 2, %149
  %151 = sext i32 %150 to i64
  %152 = getelementptr inbounds [50 x %struct.Vector2], ptr %15, i64 0, i64 %151
  %153 = getelementptr inbounds nuw %struct.Vector2, ptr %152, i32 0, i32 0
  store float %148, ptr %153, align 8
  %154 = getelementptr inbounds nuw %struct.Vector2, ptr %13, i32 0, i32 1
  %155 = load float, ptr %154, align 4
  %156 = load float, ptr %21, align 4
  %157 = load float, ptr %22, align 4
  %158 = fneg float %156
  %159 = call float @llvm.fmuladd.f32(float %158, float %157, float %155)
  %160 = load i32, ptr %16, align 4
  %161 = mul nsw i32 2, %160
  %162 = sext i32 %161 to i64
  %163 = getelementptr inbounds [50 x %struct.Vector2], ptr %15, i64 0, i64 %162
  %164 = getelementptr inbounds nuw %struct.Vector2, ptr %163, i32 0, i32 1
  store float %159, ptr %164, align 4
  call void @llvm.memcpy.p0.p0.i64(ptr align 4 %12, ptr align 4 %13, i64 8, i1 false)
  call void @llvm.lifetime.end.p0(i64 4, ptr %22) #8
  call void @llvm.lifetime.end.p0(i64 4, ptr %21) #8
  call void @llvm.lifetime.end.p0(i64 4, ptr %20) #8
  call void @llvm.lifetime.end.p0(i64 4, ptr %19) #8
  call void @llvm.lifetime.end.p0(i64 4, ptr %18) #8
  call void @llvm.lifetime.end.p0(i64 4, ptr %17) #8
  br label %165

165:                                              ; preds = %120
  %166 = load i32, ptr %16, align 4
  %167 = add nsw i32 %166, 1
  store i32 %167, ptr %16, align 4
  br label %23

168:                                              ; preds = %26
  %169 = getelementptr inbounds [50 x %struct.Vector2], ptr %15, i64 0, i64 0
  %170 = load i32, ptr %9, align 1
  call void @DrawTriangleStrip(ptr noundef %169, i32 noundef 50, i32 %170)
  call void @llvm.lifetime.end.p0(i64 400, ptr %15) #8
  call void @llvm.lifetime.end.p0(i64 4, ptr %14) #8
  call void @llvm.lifetime.end.p0(i64 8, ptr %13) #8
  call void @llvm.lifetime.end.p0(i64 8, ptr %12) #8
  call void @llvm.lifetime.end.p0(i64 4, ptr %11) #8
  ret void
}