; Function Attrs: nounwind uwtable
define void @DrawSplineSegmentBezierQuadratic(<2 x float> %0, <2 x float> %1, <2 x float> %2, float noundef %3, i32 %4) local_unnamed_addr #4 {
  %6 = alloca [50 x %struct.Vector2], align 16
  %.sroa.050.0.vec.extract52 = extractelement <2 x float> %0, i64 0
  %.sroa.050.4.vec.extract54 = extractelement <2 x float> %0, i64 1
  call void @llvm.lifetime.start.p0(i64 400, ptr nonnull %6) #16
  %7 = getelementptr inbounds nuw i8, ptr %6, i64 16
  call void @llvm.memset.p0.i64(ptr noundef nonnull align 16 dereferenceable(400) %7, i8 0, i64 384, i1 false)
  %.sroa.049.4.vec.extract = extractelement <2 x float> %1, i64 1
  %.sroa.048.4.vec.extract = extractelement <2 x float> %2, i64 1
  %.sroa.049.0.vec.extract = extractelement <2 x float> %1, i64 0
  %.sroa.048.0.vec.extract = extractelement <2 x float> %2, i64 0
  %8 = fmul float %3, 5.000000e-01
  br label %13

9:                                                ; preds = %43
  %10 = getelementptr inbounds nuw i8, ptr %6, i64 12
  %11 = getelementptr inbounds nuw i8, ptr %6, i64 8
  %12 = getelementptr inbounds nuw i8, ptr %6, i64 4
  store float %46, ptr %12, align 4
  store float %45, ptr %11, align 8
  store float %44, ptr %10, align 4
  store float %47, ptr %6, align 16
  call void @DrawTriangleStrip(ptr noundef nonnull %6, i32 noundef 50, i32 %4)
  call void @llvm.lifetime.end.p0(i64 400, ptr nonnull %6) #16
  ret void

13:                                               ; preds = %5, %43
  %indvars.iv = phi i64 [ 1, %5 ], [ %indvars.iv.next, %43 ]
  %14 = phi float [ 0.000000e+00, %5 ], [ %44, %43 ]
  %15 = phi float [ 0.000000e+00, %5 ], [ %45, %43 ]
  %16 = phi float [ 0.000000e+00, %5 ], [ %46, %43 ]
  %.sroa.7.058 = phi float [ %.sroa.050.4.vec.extract54, %5 ], [ %26, %43 ]
  %.sroa.041.057 = phi float [ %.sroa.050.0.vec.extract52, %5 ], [ %29, %43 ]
  %17 = phi float [ 0.000000e+00, %5 ], [ %47, %43 ]
  %18 = trunc nuw nsw i64 %indvars.iv to i32
  %19 = uitofp nneg i32 %18 to float
  %20 = fmul float %19, 0x3FA5555560000000
  %21 = fsub float 1.000000e+00, %20
  %square = fmul float %21, %21
  %22 = fmul float %21, 2.000000e+00
  %23 = fmul float %20, %22
  %square55 = fmul float %20, %20
  %24 = fmul float %.sroa.049.4.vec.extract, %23
  %25 = tail call float @llvm.fmuladd.f32(float %square, float %.sroa.050.4.vec.extract54, float %24)
  %26 = tail call float @llvm.fmuladd.f32(float %square55, float %.sroa.048.4.vec.extract, float %25)
  %27 = fmul float %.sroa.049.0.vec.extract, %23
  %28 = tail call float @llvm.fmuladd.f32(float %square, float %.sroa.050.0.vec.extract52, float %27)
  %29 = tail call float @llvm.fmuladd.f32(float %square55, float %.sroa.048.0.vec.extract, float %28)
  %30 = fsub float %26, %.sroa.7.058
  %31 = fsub float %29, %.sroa.041.057
  %32 = fmul float %30, %30
  %33 = tail call float @llvm.fmuladd.f32(float %31, float %31, float %32)
  %sqrt = tail call float @llvm.sqrt.f32(float %33)
  %34 = fdiv float %8, %sqrt
  %35 = icmp eq i64 %indvars.iv, 1
  %36 = fneg float %31
  br i1 %35, label %37, label %._crit_edge

._crit_edge:                                      ; preds = %13
  %.pre = fneg float %30
  br label %43

37:                                               ; preds = %13
  %38 = tail call float @llvm.fmuladd.f32(float %30, float %34, float %.sroa.041.057)
  %39 = tail call float @llvm.fmuladd.f32(float %36, float %34, float %.sroa.7.058)
  %40 = fneg float %30
  %41 = tail call float @llvm.fmuladd.f32(float %40, float %34, float %.sroa.041.057)
  %42 = tail call float @llvm.fmuladd.f32(float %31, float %34, float %.sroa.7.058)
  br label %43

43:                                               ; preds = %._crit_edge, %37
  %.pre-phi = phi float [ %.pre, %._crit_edge ], [ %40, %37 ]
  %44 = phi float [ %14, %._crit_edge ], [ %42, %37 ]
  %45 = phi float [ %15, %._crit_edge ], [ %41, %37 ]
  %46 = phi float [ %16, %._crit_edge ], [ %39, %37 ]
  %47 = phi float [ %17, %._crit_edge ], [ %38, %37 ]
  %48 = tail call float @llvm.fmuladd.f32(float %.pre-phi, float %34, float %29)
  %49 = shl nuw nsw i64 %indvars.iv, 1
  %50 = or disjoint i64 %49, 1
  %51 = getelementptr inbounds nuw [50 x %struct.Vector2], ptr %6, i64 0, i64 %50
  store float %48, ptr %51, align 8
  %52 = tail call float @llvm.fmuladd.f32(float %31, float %34, float %26)
  %53 = getelementptr inbounds nuw i8, ptr %51, i64 4
  store float %52, ptr %53, align 4
  %54 = tail call float @llvm.fmuladd.f32(float %30, float %34, float %29)
  %55 = getelementptr inbounds nuw [50 x %struct.Vector2], ptr %6, i64 0, i64 %49
  store float %54, ptr %55, align 16
  %56 = tail call float @llvm.fmuladd.f32(float %36, float %34, float %26)
  %57 = getelementptr inbounds nuw i8, ptr %55, i64 4
  store float %56, ptr %57, align 4
  %indvars.iv.next = add nuw nsw i64 %indvars.iv, 1
  %exitcond.not = icmp eq i64 %indvars.iv.next, 25
  br i1 %exitcond.not, label %9, label %13
}